target datalayout = "e-m:e-p270:32:32-p271:32:32-p272:64:64-i64:64-i128:128-f80:128-n8:16:32:64-S128"
target triple = "x86_64-pc-linux-gnu"

%"struct.std::_Rb_tree_header" = type { %"struct.std::_Rb_tree_node_base", i64 }
%"struct.std::_Rb_tree_node_base" = type { i32, ptr, ptr, ptr }
%"class.std::map.196" = type { %"class.std::_Rb_tree.197" }
%"class.std::_Rb_tree.197" = type { %"struct.std::_Rb_tree<unsigned short, std::pair<const unsigned short, ue2::gough_accel_state_info>, std::_Select1st<std::pair<const unsigned short, ue2::gough_accel_state_info>>, std::less<unsigned short>>::_Rb_tree_impl" }
%"struct.std::_Rb_tree<unsigned short, std::pair<const unsigned short, ue2::gough_accel_state_info>, std::_Select1st<std::pair<const unsigned short, ue2::gough_accel_state_info>>, std::less<unsigned short>>::_Rb_tree_impl" = type { [8 x i8], %"struct.std::_Rb_tree_header" }
%"class.ue2::(anonymous namespace)::gough_build_strat" = type { %"class.ue2::mcclellan_build_strat", ptr, ptr, %"class.std::map.196", %"class.std::map.202" }
%"class.ue2::mcclellan_build_strat" = type { %"class.ue2::accel_dfa_build_strat.base", ptr }
%"class.ue2::accel_dfa_build_strat.base" = type <{ %"class.ue2::dfa_build_strat", i8 }>
%"class.ue2::dfa_build_strat" = type { ptr, ptr }
%"class.std::map.202" = type { %"class.std::_Rb_tree.203" }
%"class.std::_Rb_tree.203" = type { %"struct.std::_Rb_tree<gough_accel *, std::pair<gough_accel *const, unsigned short>, std::_Select1st<std::pair<gough_accel *const, unsigned short>>, std::less<gough_accel *>>::_Rb_tree_impl" }
%"struct.std::_Rb_tree<gough_accel *, std::pair<gough_accel *const, unsigned short>, std::_Select1st<std::pair<gough_accel *const, unsigned short>>, std::less<gough_accel *>>::_Rb_tree_impl" = type { [8 x i8], %"struct.std::_Rb_tree_header" }

; Function Attrs: mustprogress nounwind uwtable
define linkonce_odr hidden noundef ptr @_ZNKSt8_Rb_treeItSt4pairIKtN3ue222gough_accel_state_infoEESt10_Select1stIS4_ESt4lessItESaIS4_EE9_M_mbeginEv(ptr noundef nonnull align 8 dereferenceable(48) %0) #1 comdat align 2 {
  %2 = alloca ptr, align 8
  store ptr %0, ptr %2, align 8
  %3 = load ptr, ptr %2, align 8
  %4 = getelementptr inbounds nuw %"class.std::_Rb_tree.197", ptr %3, i32 0, i32 0
  %5 = getelementptr inbounds i8, ptr %4, i64 8
  %6 = getelementptr inbounds nuw %"struct.std::_Rb_tree_header", ptr %5, i32 0, i32 0
  %7 = getelementptr inbounds nuw %"struct.std::_Rb_tree_node_base", ptr %6, i32 0, i32 1
  %8 = load ptr, ptr %7, align 8
  ret ptr %8
}

; Function Attrs: mustprogress nounwind uwtable
define linkonce_odr hidden noundef ptr @_ZNKSt8_Rb_treeIP11gough_accelSt4pairIKS1_tESt10_Select1stIS4_ESt4lessIS1_ESaIS4_EE9_M_mbeginEv(ptr noundef nonnull align 8 dereferenceable(48) %0) #1 comdat align 2 {
  %2 = alloca ptr, align 8
  store ptr %0, ptr %2, align 8
  %3 = load ptr, ptr %2, align 8
  %4 = getelementptr inbounds nuw %"class.std::_Rb_tree.203", ptr %3, i32 0, i32 0
  %5 = getelementptr inbounds i8, ptr %4, i64 8
  %6 = getelementptr inbounds nuw %"struct.std::_Rb_tree_header", ptr %5, i32 0, i32 0
  %7 = getelementptr inbounds nuw %"struct.std::_Rb_tree_node_base", ptr %6, i32 0, i32 1
  %8 = load ptr, ptr %7, align 8
  ret ptr %8
}

; Function Attrs: mustprogress nounwind uwtable
define linkonce_odr hidden void @_ZNSt15__new_allocatorISt13_Rb_tree_nodeISt4pairIKtN3ue222gough_accel_state_infoEEEED2Ev(ptr noundef nonnull align 1 dereferenceable(1) %0) unnamed_addr #1 comdat align 2 {
  %2 = alloca ptr, align 8
  store ptr %0, ptr %2, align 8
  ret void
}

; Function Attrs: mustprogress nounwind uwtable
define linkonce_odr hidden noundef ptr @_ZNSt8_Rb_treeItSt4pairIKtN3ue222gough_accel_state_infoEESt10_Select1stIS4_ESt4lessItESaIS4_EE8_M_beginEv(ptr noundef nonnull align 8 dereferenceable(48) %0) #1 comdat align 2 {
  %2 = alloca ptr, align 8
  store ptr %0, ptr %2, align 8
  %3 = load ptr, ptr %2, align 8
  %4 = call noundef ptr @_ZNKSt8_Rb_treeItSt4pairIKtN3ue222gough_accel_state_infoEESt10_Select1stIS4_ESt4lessItESaIS4_EE9_M_mbeginEv(ptr noundef nonnull align 8 dereferenceable(48) %3) #25
  ret ptr %4
}

; Function Attrs: mustprogress nounwind uwtable
define linkonce_odr hidden void @_ZNSt15__new_allocatorISt13_Rb_tree_nodeISt4pairIKP11gough_acceltEEED2Ev(ptr noundef nonnull align 1 dereferenceable(1) %0) unnamed_addr #1 comdat align 2 {
  %2 = alloca ptr, align 8
  store ptr %0, ptr %2, align 8
  ret void
}

; Function Attrs: mustprogress nounwind uwtable
define linkonce_odr hidden noundef ptr @_ZNSt8_Rb_treeIP11gough_accelSt4pairIKS1_tESt10_Select1stIS4_ESt4lessIS1_ESaIS4_EE8_M_beginEv(ptr noundef nonnull align 8 dereferenceable(48) %0) #1 comdat align 2 {
  %2 = alloca ptr, align 8
  store ptr %0, ptr %2, align 8
  %3 = load ptr, ptr %2, align 8
  %4 = call noundef ptr @_ZNKSt8_Rb_treeIP11gough_accelSt4pairIKS1_tESt10_Select1stIS4_ESt4lessIS1_ESaIS4_EE9_M_mbeginEv(ptr noundef nonnull align 8 dereferenceable(48) %3) #25
  ret ptr %4
}

; Function Attrs: mustprogress nounwind uwtable
define linkonce_odr hidden void @_ZNSt8_Rb_treeItSt4pairIKtN3ue222gough_accel_state_infoEESt10_Select1stIS4_ESt4lessItESaIS4_EED2Ev(ptr noundef nonnull align 8 dereferenceable(48) %0) unnamed_addr #1 comdat align 2 personality ptr @__gxx_personality_v0 {
  %2 = alloca ptr, align 8
  store ptr %0, ptr %2, align 8
  %3 = load ptr, ptr %2, align 8
  %4 = call noundef ptr @_ZNSt8_Rb_treeItSt4pairIKtN3ue222gough_accel_state_infoEESt10_Select1stIS4_ESt4lessItESaIS4_EE8_M_beginEv(ptr noundef nonnull align 8 dereferenceable(48) %3) #25
  invoke void @_ZNSt8_Rb_treeItSt4pairIKtN3ue222gough_accel_state_infoEESt10_Select1stIS4_ESt4lessItESaIS4_EE8_M_eraseEPSt13_Rb_tree_nodeIS4_E(ptr noundef nonnull align 8 dereferenceable(48) %3, ptr noundef %4)
          to label %5 unwind label %7

5:                                                ; preds = %1
  %6 = getelementptr inbounds nuw %"class.std::_Rb_tree.197", ptr %3, i32 0, i32 0
  call void @_ZNSt15__new_allocatorISt13_Rb_tree_nodeISt4pairIKtN3ue222gough_accel_state_infoEEEED2Ev(ptr noundef nonnull align 8 dereferenceable(48) %6) #25
  ret void

7:                                                ; preds = %1
  %8 = landingpad { ptr, i32 }
          catch ptr null
  %9 = extractvalue { ptr, i32 } %8, 0
  call void @__clang_call_terminate(ptr %9) #27
  unreachable
}

; Function Attrs: mustprogress nounwind uwtable
define linkonce_odr hidden void @_ZNSt8_Rb_treeIP11gough_accelSt4pairIKS1_tESt10_Select1stIS4_ESt4lessIS1_ESaIS4_EED2Ev(ptr noundef nonnull align 8 dereferenceable(48) %0) unnamed_addr #1 comdat align 2 personality ptr @__gxx_personality_v0 {
  %2 = alloca ptr, align 8
  store ptr %0, ptr %2, align 8
  %3 = load ptr, ptr %2, align 8
  %4 = call noundef ptr @_ZNSt8_Rb_treeIP11gough_accelSt4pairIKS1_tESt10_Select1stIS4_ESt4lessIS1_ESaIS4_EE8_M_beginEv(ptr noundef nonnull align 8 dereferenceable(48) %3) #25
  invoke void @_ZNSt8_Rb_treeIP11gough_accelSt4pairIKS1_tESt10_Select1stIS4_ESt4lessIS1_ESaIS4_EE8_M_eraseEPSt13_Rb_tree_nodeIS4_E(ptr noundef nonnull align 8 dereferenceable(48) %3, ptr noundef %4)
          to label %5 unwind label %7

5:                                                ; preds = %1
  %6 = getelementptr inbounds nuw %"class.std::_Rb_tree.203", ptr %3, i32 0, i32 0
  call void @_ZNSt15__new_allocatorISt13_Rb_tree_nodeISt4pairIKP11gough_acceltEEED2Ev(ptr noundef nonnull align 8 dereferenceable(48) %6) #25
  ret void

7:                                                ; preds = %1
  %8 = landingpad { ptr, i32 }
          catch ptr null
  %9 = extractvalue { ptr, i32 } %8, 0
  call void @__clang_call_terminate(ptr %9) #27
  unreachable
}

; Function Attrs: mustprogress nounwind uwtable
define linkonce_odr hidden void @_ZNSt3mapItN3ue222gough_accel_state_infoESt4lessItESaISt4pairIKtS1_EEED2Ev(ptr noundef nonnull align 8 dereferenceable(48) %0) unnamed_addr #1 comdat align 2 {
  %2 = alloca ptr, align 8
  store ptr %0, ptr %2, align 8
  %3 = load ptr, ptr %2, align 8
  %4 = getelementptr inbounds nuw %"class.std::map.196", ptr %3, i32 0, i32 0
  call void @_ZNSt8_Rb_treeItSt4pairIKtN3ue222gough_accel_state_infoEESt10_Select1stIS4_ESt4lessItESaIS4_EED2Ev(ptr noundef nonnull align 8 dereferenceable(48) %4) #25
  ret void
}

; Function Attrs: mustprogress nounwind uwtable
define linkonce_odr hidden void @_ZNSt3mapIP11gough_acceltSt4lessIS1_ESaISt4pairIKS1_tEEED2Ev(ptr noundef nonnull align 8 dereferenceable(48) %0) unnamed_addr #1 comdat align 2 {
  %2 = alloca ptr, align 8
  store ptr %0, ptr %2, align 8
  %3 = load ptr, ptr %2, align 8
  %4 = getelementptr inbounds nuw %"class.std::map.202", ptr %3, i32 0, i32 0
  call void @_ZNSt8_Rb_treeIP11gough_accelSt4pairIKS1_tESt10_Select1stIS4_ESt4lessIS1_ESaIS4_EED2Ev(ptr noundef nonnull align 8 dereferenceable(48) %4) #25
  ret void
}

; Function Attrs: inlinehint mustprogress nounwind uwtable
define internal void @_ZN3ue212_GLOBAL__N_117gough_build_stratD2Ev(ptr noundef nonnull align 8 dereferenceable(144) %0) unnamed_addr #4 align 2 {
  %2 = alloca ptr, align 8
  store ptr %0, ptr %2, align 8
  %3 = load ptr, ptr %2, align 8
  store ptr getelementptr inbounds inrange(-16, 96) ({ [14 x ptr] }, ptr @_ZTVN3ue212_GLOBAL__N_117gough_build_stratE, i32 0, i32 0, i32 2), ptr %3, align 8
  %4 = getelementptr inbounds nuw %"class.ue2::(anonymous namespace)::gough_build_strat", ptr %3, i32 0, i32 4
  call void @_ZNSt3mapIP11gough_acceltSt4lessIS1_ESaISt4pairIKS1_tEEED2Ev(ptr noundef nonnull align 8 dereferenceable(48) %4) #25
  %5 = getelementptr inbounds nuw %"class.ue2::(anonymous namespace)::gough_build_strat", ptr %3, i32 0, i32 3
  call void @_ZNSt3mapItN3ue222gough_accel_state_infoESt4lessItESaISt4pairIKtS1_EEED2Ev(ptr noundef nonnull align 8 dereferenceable(48) %5) #25
  call void @_ZN3ue215dfa_build_stratD2Ev(ptr noundef nonnull align 8 dereferenceable(32) %3) #25
  ret void
}